; Function Attrs: mustprogress nounwind uwtable
define hidden void @_ZN13TemplateTable11wide_istoreEv() local_unnamed_addr #0 align 2 {
  %1 = alloca %class.Address, align 16
  tail call void @_ZN13TemplateTable10transitionE8TosStateS0_(i32 noundef 9, i32 noundef 9) #8
  %2 = load ptr, ptr @_ZN13TemplateTable5_masmE, align 8
  %3 = load i8, ptr @PrintInterpreter, align 1
  %4 = trunc i8 %3 to i1
  br i1 %4, label %5, label %_ZN12Disassembler4hookI25InterpreterMacroAssemblerEEPT_PKciS3_.exit

5:                                                ; preds = %0
  tail call void @_ZN12Disassembler5_hookEPKciP14MacroAssembler(ptr noundef nonnull @.str, i32 noundef 1029, ptr noundef %2) #8
  br label %_ZN12Disassembler4hookI25InterpreterMacroAssemblerEEPT_PKciS3_.exit

_ZN12Disassembler4hookI25InterpreterMacroAssemblerEEPT_PKciS3_.exit: ; preds = %0, %5
  tail call void @_ZN25InterpreterMacroAssembler5pop_iE8Register(ptr noundef nonnull align 8 dereferenceable(48) %2, i32 0) #8
  tail call void @_ZN13TemplateTable17locals_index_wideE8Register(i32 3)
  %6 = load ptr, ptr @_ZN13TemplateTable5_masmE, align 8
  %7 = load i8, ptr @PrintInterpreter, align 1
  %8 = trunc i8 %7 to i1
  br i1 %8, label %9, label %_ZN12Disassembler4hookI25InterpreterMacroAssemblerEEPT_PKciS3_.exit4

9:                                                ; preds = %_ZN12Disassembler4hookI25InterpreterMacroAssemblerEEPT_PKciS3_.exit
  tail call void @_ZN12Disassembler5_hookEPKciP14MacroAssembler(ptr noundef nonnull @.str, i32 noundef 1031, ptr noundef %6) #8
  br label %_ZN12Disassembler4hookI25InterpreterMacroAssemblerEEPT_PKciS3_.exit4

_ZN12Disassembler4hookI25InterpreterMacroAssemblerEEPT_PKciS3_.exit4: ; preds = %_ZN12Disassembler4hookI25InterpreterMacroAssemblerEEPT_PKciS3_.exit, %9
  store <4 x i32> <i32 14, i32 3, i32 -1, i32 3>, ptr %1, align 16, !alias.scope !185
  %10 = getelementptr inbounds i8, ptr %1, i64 16
  store i32 0, ptr %10, align 16, !alias.scope !185
  %11 = getelementptr inbounds i8, ptr %1, i64 20
  store i8 0, ptr %11, align 4, !alias.scope !185
  %12 = getelementptr inbounds i8, ptr %1, i64 24
  store ptr getelementptr inbounds inrange(-16, 72) (i8, ptr @_ZTV10Relocation, i64 16), ptr %12, align 8, !alias.scope !185
  %13 = getelementptr inbounds i8, ptr %1, i64 32
  store ptr null, ptr %13, align 16, !alias.scope !185
  %14 = getelementptr inbounds i8, ptr %1, i64 40
  store i32 0, ptr %14, align 8, !alias.scope !185
  call void @_ZN9Assembler4movlE7Address8Register(ptr noundef nonnull align 8 dereferenceable(40) %6, ptr noundef nonnull %1, i32 0) #8
  ret void
}